; Function Attrs: mustprogress uwtable
define hidden void @_ZN14duckdb_mbedtls14MbedTlsWrapper17ComputeSha256HashEPKcmPc(ptr noundef %0, i64 noundef %1, ptr noundef %2) local_unnamed_addr #0 align 2 personality ptr @__gxx_personality_v0 {
  %4 = alloca %struct.mbedtls_sha256_context, align 4
  call void @llvm.lifetime.start.p0(i64 108, ptr nonnull %4) #19
  call void @mbedtls_sha256_init(ptr noundef nonnull %4)
  %5 = call i32 @mbedtls_sha256_starts(ptr noundef nonnull %4, i32 noundef 0)
  %.not = icmp eq i32 %5, 0
  br i1 %.not, label %6, label %10

6:                                                ; preds = %3
  %7 = call i32 @mbedtls_sha256_update(ptr noundef nonnull %4, ptr noundef %0, i64 noundef %1)
  %.not4 = icmp eq i32 %7, 0
  br i1 %.not4, label %8, label %10

8:                                                ; preds = %6
  %9 = call i32 @mbedtls_sha256_finish(ptr noundef nonnull %4, ptr noundef %2)
  %.not5 = icmp eq i32 %9, 0
  br i1 %.not5, label %15, label %10

10:                                               ; preds = %8, %6, %3
  %11 = call ptr @__cxa_allocate_exception(i64 16) #19
  invoke void @_ZNSt13runtime_errorC1EPKc(ptr noundef nonnull align 8 dereferenceable(16) %11, ptr noundef nonnull @.str)
          to label %12 unwind label %13

12:                                               ; preds = %10
  call void @__cxa_throw(ptr nonnull %11, ptr nonnull @_ZTISt13runtime_error, ptr nonnull @_ZNSt13runtime_errorD1Ev) #20
  unreachable

13:                                               ; preds = %10
  %14 = landingpad { ptr, i32 }
          cleanup
  call void @__cxa_free_exception(ptr nonnull %11) #19
  call void @llvm.lifetime.end.p0(i64 108, ptr nonnull %4) #19
  resume { ptr, i32 } %14

15:                                               ; preds = %8
  call void @mbedtls_sha256_free(ptr noundef nonnull %4)
  call void @llvm.lifetime.end.p0(i64 108, ptr nonnull %4) #19
  ret void
}